; Function Attrs: mustprogress uwtable
define noundef nonnull align 8 dereferenceable(8) ptr @_ZN19OpenColorIO_v2_5devlsERSoRKNS_20ColorSpaceMenuHelperE(ptr noundef nonnull returned align 8 dereferenceable(8) %0, ptr noundef nonnull align 8 dereferenceable(8) %1) local_unnamed_addr #0 {
  %3 = tail call ptr @__dynamic_cast(ptr nonnull %1, ptr nonnull @_ZTIN19OpenColorIO_v2_5dev20ColorSpaceMenuHelperE, ptr nonnull @_ZTIN19OpenColorIO_v2_5dev24ColorSpaceMenuHelperImplE, i64 0) #29
  %4 = icmp eq ptr %3, null
  br i1 %4, label %5, label %6

5:                                                ; preds = %2
  tail call void @__cxa_bad_cast() #30
  unreachable

6:                                                ; preds = %2
  %7 = tail call noundef nonnull align 8 dereferenceable(8) ptr @_ZNK19OpenColorIO_v2_5dev24ColorSpaceMenuHelperImpl9serializeERSo(ptr noundef nonnull align 8 dereferenceable(216) %3, ptr noundef nonnull align 8 dereferenceable(8) %0)
  ret ptr %0
}